target datalayout = "e-m:e-p270:32:32-p271:32:32-p272:64:64-i64:64-i128:128-f80:128-n8:16:32:64-S128"
target triple = "x86_64-pc-linux-gnu"

%struct.cpu_flags = type { i8, i8, i8, i8, i8, i8, i8, i8, i8 }

; Function Attrs: nounwind uwtable
define hidden void @detect_cpu_features(ptr noundef %0) #0 {
  %2 = alloca ptr, align 8
  %3 = alloca i32, align 4
  %4 = alloca i32, align 4
  %5 = alloca i32, align 4
  %6 = alloca i32, align 4
  %7 = alloca i32, align 4
  %8 = alloca i32, align 4
  %9 = alloca i32, align 4
  %10 = alloca i32, align 4
  store ptr %0, ptr %2, align 8, !tbaa !3
  %11 = load ptr, ptr %2, align 8, !tbaa !3
  %12 = getelementptr inbounds nuw %struct.cpu_flags, ptr %11, i32 0, i32 8
  %13 = load i8, ptr %12, align 1, !tbaa !7, !range !10, !noundef !11
  %14 = trunc i8 %13 to i1
  br i1 %14, label %76, label %15

15:                                               ; preds = %1
  call void @llvm.lifetime.start.p0(i64 4, ptr %3) #8
  store i32 0, ptr %3, align 4, !tbaa !12
  call void @llvm.lifetime.start.p0(i64 4, ptr %4) #8
  store i32 0, ptr %4, align 4, !tbaa !12
  call void @llvm.lifetime.start.p0(i64 4, ptr %5) #8
  store i32 0, ptr %5, align 4, !tbaa !12
  call void @llvm.lifetime.start.p0(i64 4, ptr %6) #8
  store i32 0, ptr %6, align 4, !tbaa !12
  call void @llvm.lifetime.start.p0(i64 4, ptr %7) #8
  store i32 0, ptr %7, align 4, !tbaa !12
  call void @llvm.lifetime.start.p0(i64 4, ptr %8) #8
  store i32 0, ptr %8, align 4, !tbaa !12
  call void @llvm.lifetime.start.p0(i64 4, ptr %9) #8
  store i32 0, ptr %9, align 4, !tbaa !12
  call void @llvm.lifetime.start.p0(i64 4, ptr %10) #8
  store i32 0, ptr %10, align 4, !tbaa !12
  %16 = call { i32, i32, i32, i32 } asm "  xchgq  %rbx,${1:q}\0A  cpuid\0A  xchgq  %rbx,${1:q}", "={ax},=r,={cx},={dx},0,2,~{dirflag},~{fpsr},~{flags}"(i32 1, i32 0) #9, !srcloc !14
  %17 = extractvalue { i32, i32, i32, i32 } %16, 0
  %18 = extractvalue { i32, i32, i32, i32 } %16, 1
  %19 = extractvalue { i32, i32, i32, i32 } %16, 2
  %20 = extractvalue { i32, i32, i32, i32 } %16, 3
  store i32 %17, ptr %3, align 4, !tbaa !12
  store i32 %18, ptr %4, align 4, !tbaa !12
  store i32 %19, ptr %5, align 4, !tbaa !12
  store i32 %20, ptr %6, align 4, !tbaa !12
  %21 = call { i32, i32, i32, i32 } asm "  xchgq  %rbx,${1:q}\0A  cpuid\0A  xchgq  %rbx,${1:q}", "={ax},=r,={cx},={dx},0,2,~{dirflag},~{fpsr},~{flags}"(i32 7, i32 0) #9, !srcloc !15
  %22 = extractvalue { i32, i32, i32, i32 } %21, 0
  %23 = extractvalue { i32, i32, i32, i32 } %21, 1
  %24 = extractvalue { i32, i32, i32, i32 } %21, 2
  %25 = extractvalue { i32, i32, i32, i32 } %21, 3
  store i32 %22, ptr %7, align 4, !tbaa !12
  store i32 %23, ptr %8, align 4, !tbaa !12
  store i32 %24, ptr %9, align 4, !tbaa !12
  store i32 %25, ptr %10, align 4, !tbaa !12
  %26 = load i32, ptr %5, align 4, !tbaa !12
  %27 = and i32 %26, 268435456
  %28 = icmp ne i32 %27, 0
  %29 = load ptr, ptr %2, align 8, !tbaa !3
  %30 = getelementptr inbounds nuw %struct.cpu_flags, ptr %29, i32 0, i32 6
  %31 = zext i1 %28 to i8
  store i8 %31, ptr %30, align 1, !tbaa !16
  %32 = load i32, ptr %8, align 4, !tbaa !12
  %33 = and i32 %32, 32
  %34 = icmp ne i32 %33, 0
  %35 = load ptr, ptr %2, align 8, !tbaa !3
  %36 = getelementptr inbounds nuw %struct.cpu_flags, ptr %35, i32 0, i32 7
  %37 = zext i1 %34 to i8
  store i8 %37, ptr %36, align 1, !tbaa !17
  %38 = load i32, ptr %6, align 4, !tbaa !12
  %39 = and i32 %38, 33554432
  %40 = icmp ne i32 %39, 0
  %41 = load ptr, ptr %2, align 8, !tbaa !3
  %42 = getelementptr inbounds nuw %struct.cpu_flags, ptr %41, i32 0, i32 0
  %43 = zext i1 %40 to i8
  store i8 %43, ptr %42, align 1, !tbaa !18
  %44 = load i32, ptr %6, align 4, !tbaa !12
  %45 = and i32 %44, 67108864
  %46 = icmp ne i32 %45, 0
  %47 = load ptr, ptr %2, align 8, !tbaa !3
  %48 = getelementptr inbounds nuw %struct.cpu_flags, ptr %47, i32 0, i32 1
  %49 = zext i1 %46 to i8
  store i8 %49, ptr %48, align 1, !tbaa !19
  %50 = load i32, ptr %6, align 4, !tbaa !12
  %51 = and i32 %50, 32768
  %52 = icmp ne i32 %51, 0
  %53 = load ptr, ptr %2, align 8, !tbaa !3
  %54 = getelementptr inbounds nuw %struct.cpu_flags, ptr %53, i32 0, i32 5
  %55 = zext i1 %52 to i8
  store i8 %55, ptr %54, align 1, !tbaa !20
  %56 = load i32, ptr %5, align 4, !tbaa !12
  %57 = and i32 %56, 1
  %58 = icmp ne i32 %57, 0
  %59 = load ptr, ptr %2, align 8, !tbaa !3
  %60 = getelementptr inbounds nuw %struct.cpu_flags, ptr %59, i32 0, i32 2
  %61 = zext i1 %58 to i8
  store i8 %61, ptr %60, align 1, !tbaa !21
  %62 = load i32, ptr %5, align 4, !tbaa !12
  %63 = and i32 %62, 524288
  %64 = icmp ne i32 %63, 0
  %65 = load ptr, ptr %2, align 8, !tbaa !3
  %66 = getelementptr inbounds nuw %struct.cpu_flags, ptr %65, i32 0, i32 3
  %67 = zext i1 %64 to i8
  store i8 %67, ptr %66, align 1, !tbaa !22
  %68 = load i32, ptr %5, align 4, !tbaa !12
  %69 = and i32 %68, 1048576
  %70 = icmp ne i32 %69, 0
  %71 = load ptr, ptr %2, align 8, !tbaa !3
  %72 = getelementptr inbounds nuw %struct.cpu_flags, ptr %71, i32 0, i32 4
  %73 = zext i1 %70 to i8
  store i8 %73, ptr %72, align 1, !tbaa !23
  %74 = load ptr, ptr %2, align 8, !tbaa !3
  %75 = getelementptr inbounds nuw %struct.cpu_flags, ptr %74, i32 0, i32 8
  store i8 1, ptr %75, align 1, !tbaa !7
  call void @llvm.lifetime.end.p0(i64 4, ptr %10) #8
  call void @llvm.lifetime.end.p0(i64 4, ptr %9) #8
  call void @llvm.lifetime.end.p0(i64 4, ptr %8) #8
  call void @llvm.lifetime.end.p0(i64 4, ptr %7) #8
  call void @llvm.lifetime.end.p0(i64 4, ptr %6) #8
  call void @llvm.lifetime.end.p0(i64 4, ptr %5) #8
  call void @llvm.lifetime.end.p0(i64 4, ptr %4) #8
  call void @llvm.lifetime.end.p0(i64 4, ptr %3) #8
  br label %76

76:                                               ; preds = %15, %1
  ret void
}