; Function Attrs: nounwind memory(argmem: readwrite) uwtable
define hidden void @detect_cpu_features(ptr noundef captures(none) %0) local_unnamed_addr #0 {
  %2 = getelementptr inbounds nuw i8, ptr %0, i64 8
  %3 = load i8, ptr %2, align 1, !tbaa !3, !range !8, !noundef !9
  %4 = trunc nuw i8 %3 to i1
  br i1 %4, label %41, label %5

5:                                                ; preds = %1
  %6 = tail call { i32, i32, i32, i32 } asm "  xchgq  %rbx,${1:q}\0A  cpuid\0A  xchgq  %rbx,${1:q}", "={ax},=r,={cx},={dx},0,2,~{dirflag},~{fpsr},~{flags}"(i32 1, i32 0) #8, !srcloc !10
  %7 = extractvalue { i32, i32, i32, i32 } %6, 2
  %8 = extractvalue { i32, i32, i32, i32 } %6, 3
  %9 = tail call { i32, i32, i32, i32 } asm "  xchgq  %rbx,${1:q}\0A  cpuid\0A  xchgq  %rbx,${1:q}", "={ax},=r,={cx},={dx},0,2,~{dirflag},~{fpsr},~{flags}"(i32 7, i32 0) #8, !srcloc !11
  %10 = extractvalue { i32, i32, i32, i32 } %9, 1
  %11 = getelementptr inbounds nuw i8, ptr %0, i64 6
  %12 = lshr i32 %7, 28
  %13 = trunc nuw nsw i32 %12 to i8
  %14 = and i8 %13, 1
  store i8 %14, ptr %11, align 1, !tbaa !12
  %15 = getelementptr inbounds nuw i8, ptr %0, i64 7
  %16 = trunc i32 %10 to i8
  %17 = lshr i8 %16, 5
  %18 = and i8 %17, 1
  store i8 %18, ptr %15, align 1, !tbaa !13
  %19 = lshr i32 %8, 25
  %20 = trunc nuw nsw i32 %19 to i8
  %21 = and i8 %20, 1
  store i8 %21, ptr %0, align 1, !tbaa !14
  %22 = getelementptr inbounds nuw i8, ptr %0, i64 1
  %23 = lshr i32 %8, 26
  %24 = trunc nuw nsw i32 %23 to i8
  %25 = and i8 %24, 1
  store i8 %25, ptr %22, align 1, !tbaa !15
  %26 = getelementptr inbounds nuw i8, ptr %0, i64 5
  %27 = lshr i32 %8, 15
  %28 = trunc i32 %27 to i8
  %29 = and i8 %28, 1
  store i8 %29, ptr %26, align 1, !tbaa !16
  %30 = getelementptr inbounds nuw i8, ptr %0, i64 2
  %31 = trunc i32 %7 to i8
  %32 = and i8 %31, 1
  store i8 %32, ptr %30, align 1, !tbaa !17
  %33 = getelementptr inbounds nuw i8, ptr %0, i64 3
  %34 = lshr i32 %7, 19
  %35 = trunc i32 %34 to i8
  %36 = and i8 %35, 1
  store i8 %36, ptr %33, align 1, !tbaa !18
  %37 = getelementptr inbounds nuw i8, ptr %0, i64 4
  %38 = lshr i32 %7, 20
  %39 = trunc i32 %38 to i8
  %40 = and i8 %39, 1
  store i8 %40, ptr %37, align 1, !tbaa !19
  store i8 1, ptr %2, align 1, !tbaa !3
  br label %41

41:                                               ; preds = %5, %1
  ret void
}